target datalayout = "e-m:e-p270:32:32-p271:32:32-p272:64:64-i64:64-i128:128-f80:128-n8:16:32:64-S128"
target triple = "x86_64-pc-linux-gnu"

@H5G_init_g = external global i8, align 1
@H5_libterm_g = external global i8, align 1

; Function Attrs: nounwind uwtable
define internal i32 @H5G__cache_node_get_initial_load_size(ptr noundef %0, ptr noundef %1) #0 {
  %3 = alloca ptr, align 8
  %4 = alloca ptr, align 8
  %5 = alloca ptr, align 8
  store ptr %0, ptr %3, align 8, !tbaa !3
  store ptr %1, ptr %4, align 8, !tbaa !7
  call void @llvm.lifetime.start.p0(i64 8, ptr %5) #7
  %6 = load ptr, ptr %3, align 8, !tbaa !3
  store ptr %6, ptr %5, align 8, !tbaa !9
  %7 = load i8, ptr @H5G_init_g, align 1, !tbaa !11, !range !13, !noundef !14
  %8 = trunc i8 %7 to i1
  br i1 %8, label %13, label %9

9:                                                ; preds = %2
  %10 = load i8, ptr @H5_libterm_g, align 1, !tbaa !11, !range !13, !noundef !14
  %11 = trunc i8 %10 to i1
  %12 = xor i1 %11, true
  br label %13

13:                                               ; preds = %9, %2
  %14 = phi i1 [ true, %2 ], [ %12, %9 ]
  %15 = xor i1 %14, true
  %16 = xor i1 %15, true
  %17 = zext i1 %16 to i32
  %18 = sext i32 %17 to i64
  %19 = call i64 @llvm.expect.i64(i64 %18, i64 1)
  %20 = icmp ne i64 %19, 0
  br i1 %20, label %21, label %39

21:                                               ; preds = %13
  %22 = load ptr, ptr %5, align 8, !tbaa !9
  %23 = call i32 @H5F_sym_leaf_k(ptr noundef %22)
  %24 = mul i32 2, %23
  %25 = load ptr, ptr %5, align 8, !tbaa !9
  %26 = call zeroext i8 @H5F_sizeof_size(ptr noundef %25)
  %27 = zext i8 %26 to i32
  %28 = load ptr, ptr %5, align 8, !tbaa !9
  %29 = call zeroext i8 @H5F_sizeof_addr(ptr noundef %28)
  %30 = zext i8 %29 to i32
  %31 = add nsw i32 %27, %30
  %32 = add nsw i32 %31, 4
  %33 = add nsw i32 %32, 4
  %34 = add nsw i32 %33, 16
  %35 = mul i32 %24, %34
  %36 = add i32 8, %35
  %37 = zext i32 %36 to i64
  %38 = load ptr, ptr %4, align 8, !tbaa !7
  store i64 %37, ptr %38, align 8, !tbaa !15
  br label %39

39:                                               ; preds = %21, %13
  call void @llvm.lifetime.end.p0(i64 8, ptr %5) #7
  ret i32 0
}