; Function Attrs: nounwind uwtable
define internal noundef i32 @H5G__cache_node_get_initial_load_size(ptr noundef %0, ptr noundef writeonly captures(none) %1) #0 {
  %3 = load i8, ptr @H5G_init_g, align 1, !tbaa !3, !range !7, !noundef !8
  %4 = trunc nuw i8 %3 to i1
  %5 = load i8, ptr @H5_libterm_g, align 1, !range !7
  %6 = trunc nuw i8 %5 to i1
  %7 = xor i1 %6, true
  %8 = select i1 %4, i1 true, i1 %7
  br i1 %8, label %9, label %21, !prof !9

9:                                                ; preds = %2
  %10 = tail call i32 @H5F_sym_leaf_k(ptr noundef %0) #6
  %11 = shl i32 %10, 1
  %12 = tail call zeroext i8 @H5F_sizeof_size(ptr noundef %0) #6
  %13 = zext i8 %12 to i32
  %14 = tail call zeroext i8 @H5F_sizeof_addr(ptr noundef %0) #6
  %15 = zext i8 %14 to i32
  %16 = add nuw nsw i32 %13, 24
  %17 = add nuw nsw i32 %16, %15
  %18 = mul i32 %11, %17
  %19 = add i32 %18, 8
  %20 = zext i32 %19 to i64
  store i64 %20, ptr %1, align 8, !tbaa !10
  br label %21

21:                                               ; preds = %9, %2
  ret i32 0
}